; Function Attrs: nofree norecurse nosync nounwind memory(argmem: readwrite) uwtable
define internal void @conv_AV_SAMPLE_FMT_FLT_to_AV_SAMPLE_FMT_U8(ptr noundef writeonly captures(address) %0, ptr noundef readonly captures(none) %1, i32 noundef %2, i32 noundef %3, ptr noundef readnone captures(address) %4) #4 {
  %6 = mul nsw i32 %3, 3
  %7 = sext i32 %6 to i64
  %8 = sub nsw i64 0, %7
  %9 = getelementptr inbounds i8, ptr %4, i64 %8
  %10 = icmp ult ptr %0, %9
  br i1 %10, label %.lr.ph, label %.preheader

.lr.ph:                                           ; preds = %5
  %11 = sext i32 %2 to i64
  %12 = sext i32 %3 to i64
  br label %16

.preheader:                                       ; preds = %16, %5
  %.035.lcssa = phi ptr [ %1, %5 ], [ %51, %16 ]
  %.0.lcssa = phi ptr [ %0, %5 ], [ %52, %16 ]
  %13 = icmp ult ptr %.0.lcssa, %4
  br i1 %13, label %.lr.ph54, label %._crit_edge

.lr.ph54:                                         ; preds = %.preheader
  %14 = sext i32 %2 to i64
  %15 = sext i32 %3 to i64
  br label %54

16:                                               ; preds = %.lr.ph, %16
  %.050 = phi ptr [ %0, %.lr.ph ], [ %52, %16 ]
  %.03549 = phi ptr [ %1, %.lr.ph ], [ %51, %16 ]
  %17 = load float, ptr %.03549, align 4, !tbaa !38
  %18 = fmul nsz float %17, 1.280000e+02
  %19 = tail call i64 @llvm.lrint.i64.f32(float %18)
  %20 = trunc i64 %19 to i32
  %21 = add i32 %20, 128
  %.not.i = icmp ult i32 %21, 256
  %isnotneg.i = icmp sgt i32 %21, -1
  %22 = sext i1 %isnotneg.i to i8
  %23 = trunc nuw i32 %21 to i8
  %.0.i = select i1 %.not.i, i8 %23, i8 %22
  store i8 %.0.i, ptr %.050, align 1, !tbaa !29
  %24 = getelementptr inbounds i8, ptr %.03549, i64 %11
  %25 = getelementptr inbounds i8, ptr %.050, i64 %12
  %26 = load float, ptr %24, align 4, !tbaa !38
  %27 = fmul nsz float %26, 1.280000e+02
  %28 = tail call i64 @llvm.lrint.i64.f32(float %27)
  %29 = trunc i64 %28 to i32
  %30 = add i32 %29, 128
  %.not.i37 = icmp ult i32 %30, 256
  %isnotneg.i38 = icmp sgt i32 %30, -1
  %31 = sext i1 %isnotneg.i38 to i8
  %32 = trunc nuw i32 %30 to i8
  %.0.i39 = select i1 %.not.i37, i8 %32, i8 %31
  store i8 %.0.i39, ptr %25, align 1, !tbaa !29
  %33 = getelementptr inbounds i8, ptr %24, i64 %11
  %34 = getelementptr inbounds i8, ptr %25, i64 %12
  %35 = load float, ptr %33, align 4, !tbaa !38
  %36 = fmul nsz float %35, 1.280000e+02
  %37 = tail call i64 @llvm.lrint.i64.f32(float %36)
  %38 = trunc i64 %37 to i32
  %39 = add i32 %38, 128
  %.not.i40 = icmp ult i32 %39, 256
  %isnotneg.i41 = icmp sgt i32 %39, -1
  %40 = sext i1 %isnotneg.i41 to i8
  %41 = trunc nuw i32 %39 to i8
  %.0.i42 = select i1 %.not.i40, i8 %41, i8 %40
  store i8 %.0.i42, ptr %34, align 1, !tbaa !29
  %42 = getelementptr inbounds i8, ptr %33, i64 %11
  %43 = getelementptr inbounds i8, ptr %34, i64 %12
  %44 = load float, ptr %42, align 4, !tbaa !38
  %45 = fmul nsz float %44, 1.280000e+02
  %46 = tail call i64 @llvm.lrint.i64.f32(float %45)
  %47 = trunc i64 %46 to i32
  %48 = add i32 %47, 128
  %.not.i43 = icmp ult i32 %48, 256
  %isnotneg.i44 = icmp sgt i32 %48, -1
  %49 = sext i1 %isnotneg.i44 to i8
  %50 = trunc nuw i32 %48 to i8
  %.0.i45 = select i1 %.not.i43, i8 %50, i8 %49
  store i8 %.0.i45, ptr %43, align 1, !tbaa !29
  %51 = getelementptr inbounds i8, ptr %42, i64 %11
  %52 = getelementptr inbounds i8, ptr %43, i64 %12
  %53 = icmp ult ptr %52, %9
  br i1 %53, label %16, label %.preheader, !llvm.loop !74

54:                                               ; preds = %.lr.ph54, %54
  %.153 = phi ptr [ %.0.lcssa, %.lr.ph54 ], [ %63, %54 ]
  %.13652 = phi ptr [ %.035.lcssa, %.lr.ph54 ], [ %62, %54 ]
  %55 = load float, ptr %.13652, align 4, !tbaa !38
  %56 = fmul nsz float %55, 1.280000e+02
  %57 = tail call i64 @llvm.lrint.i64.f32(float %56)
  %58 = trunc i64 %57 to i32
  %59 = add i32 %58, 128
  %.not.i46 = icmp ult i32 %59, 256
  %isnotneg.i47 = icmp sgt i32 %59, -1
  %60 = sext i1 %isnotneg.i47 to i8
  %61 = trunc nuw i32 %59 to i8
  %.0.i48 = select i1 %.not.i46, i8 %61, i8 %60
  store i8 %.0.i48, ptr %.153, align 1, !tbaa !29
  %62 = getelementptr inbounds i8, ptr %.13652, i64 %14
  %63 = getelementptr inbounds i8, ptr %.153, i64 %15
  %64 = icmp ult ptr %63, %4
  br i1 %64, label %54, label %._crit_edge, !llvm.loop !75

._crit_edge:                                      ; preds = %54, %.preheader
  ret void
}